; ModuleID = 'bench/gromacs/original/device_stream.cpp.ll'
source_filename = "bench/gromacs/original/device_stream.cpp.ll"
target datalayout = "e-m:e-p270:32:32-p271:32:32-p272:64:64-i64:64-i128:128-f80:128-n8:16:32:64-S128"
target triple = "x86_64-pc-linux-gnu"

@_ZN12DeviceStreamC1ERK13DeviceContext20DeviceStreamPriorityb = unnamed_addr alias void (ptr, ptr, i32, i1), ptr @_ZN12DeviceStreamC2ERK13DeviceContext20DeviceStreamPriorityb
@_ZN12DeviceStreamD1Ev = unnamed_addr alias void (ptr), ptr @_ZN12DeviceStreamD2Ev

; Function Attrs: mustprogress nofree norecurse nosync nounwind willreturn memory(none) uwtable
define void @_ZN12DeviceStreamC2ERK13DeviceContext20DeviceStreamPriorityb(ptr nocapture nonnull readnone align 1 %0, ptr nocapture nonnull readnone align 1 %1, i32 %2, i1 zeroext %3) unnamed_addr #0 align 2 {
  ret void
}

; Function Attrs: mustprogress nofree norecurse nosync nounwind willreturn memory(none) uwtable
define void @_ZN12DeviceStreamD2Ev(ptr nocapture nonnull readnone align 1 %0) unnamed_addr #0 align 2 {
  ret void
}

; Function Attrs: mustprogress nofree norecurse nosync nounwind willreturn memory(none) uwtable
define noundef zeroext i1 @_ZNK12DeviceStream7isValidEv(ptr nocapture noundef nonnull readnone align 1 dereferenceable(1) %0) local_unnamed_addr #0 align 2 {
  ret i1 false
}

; Function Attrs: mustprogress nofree norecurse nosync nounwind willreturn memory(none) uwtable
define void @_ZNK12DeviceStream11synchronizeEv(ptr nocapture noundef nonnull readnone align 1 dereferenceable(1) %0) local_unnamed_addr #0 align 2 {
  ret void
}

; Function Attrs: mustprogress nofree norecurse nosync nounwind willreturn memory(none) uwtable
define void @_Z20issueClFlushInStreamRK12DeviceStream(ptr nocapture noundef nonnull readnone align 1 dereferenceable(1) %0) local_unnamed_addr #0 {
  ret void
}


!llvm.module.flags = !{!0, !1, !2, !3, !4}

!0 = !{i32 1, !"wchar_size", i32 4}
!1 = !{i32 7, !"openmp", i32 51}
!2 = !{i32 8, !"PIC Level", i32 2}
!3 = !{i32 7, !"uwtable", i32 2}
!4 = !{i32 7, !"frame-pointer", i32 2}
